target datalayout = "e-m:e-p270:32:32-p271:32:32-p272:64:64-i64:64-i128:128-f80:128-n8:16:32:64-S128"
target triple = "x86_64-unknown-linux-gnu"

%"struct.node::crypto::ScryptConfig" = type <{ %"class.node::MemoryRetainer", i32, [4 x i8], %"class.node::crypto::ByteSource", %"class.node::crypto::ByteSource", i32, i32, i32, [4 x i8], i64, i32, [4 x i8] }>
%"class.node::MemoryRetainer" = type { ptr }
%"class.node::crypto::ByteSource" = type { ptr, ptr, i64 }

; Function Attrs: mustprogress nounwind uwtable
define linkonce_odr dso_local void @_ZN4node14MemoryRetainerC2Ev(ptr noundef nonnull align 8 dereferenceable(8) %this) unnamed_addr #4 comdat align 2 {
entry:
  %this.addr = alloca ptr, align 8
  store ptr %this, ptr %this.addr, align 8
  %this1 = load ptr, ptr %this.addr, align 8
  store ptr getelementptr inbounds ({ [10 x ptr] }, ptr @_ZTVN4node14MemoryRetainerE, i32 0, i32 0, i32 2), ptr %this1, align 8
  ret void
}

; Function Attrs: mustprogress nounwind uwtable
define dso_local void @_ZN4node6crypto12ScryptConfigC2EOS1_(ptr noundef nonnull align 8 dereferenceable(96) %this, ptr noundef nonnull align 8 dereferenceable(96) %other) unnamed_addr #4 align 2 {
entry:
  %this.addr = alloca ptr, align 8
  %other.addr = alloca ptr, align 8
  store ptr %this, ptr %this.addr, align 8
  store ptr %other, ptr %other.addr, align 8
  %this1 = load ptr, ptr %this.addr, align 8
  call void @_ZN4node14MemoryRetainerC2Ev(ptr noundef nonnull align 8 dereferenceable(8) %this1) #3
  store ptr getelementptr inbounds ({ [10 x ptr] }, ptr @_ZTVN4node6crypto12ScryptConfigE, i32 0, i32 0, i32 2), ptr %this1, align 8
  %mode = getelementptr inbounds %"struct.node::crypto::ScryptConfig", ptr %this1, i32 0, i32 1
  %0 = load ptr, ptr %other.addr, align 8
  %mode2 = getelementptr inbounds %"struct.node::crypto::ScryptConfig", ptr %0, i32 0, i32 1
  %1 = load i32, ptr %mode2, align 8
  store i32 %1, ptr %mode, align 8
  %pass = getelementptr inbounds %"struct.node::crypto::ScryptConfig", ptr %this1, i32 0, i32 3
  %2 = load ptr, ptr %other.addr, align 8
  %pass3 = getelementptr inbounds %"struct.node::crypto::ScryptConfig", ptr %2, i32 0, i32 3
  call void @_ZN4node6crypto10ByteSourceC1EOS1_(ptr noundef nonnull align 8 dereferenceable(24) %pass, ptr noundef nonnull align 8 dereferenceable(24) %pass3) #3
  %salt = getelementptr inbounds %"struct.node::crypto::ScryptConfig", ptr %this1, i32 0, i32 4
  %3 = load ptr, ptr %other.addr, align 8
  %salt4 = getelementptr inbounds %"struct.node::crypto::ScryptConfig", ptr %3, i32 0, i32 4
  call void @_ZN4node6crypto10ByteSourceC1EOS1_(ptr noundef nonnull align 8 dereferenceable(24) %salt, ptr noundef nonnull align 8 dereferenceable(24) %salt4) #3
  %N = getelementptr inbounds %"struct.node::crypto::ScryptConfig", ptr %this1, i32 0, i32 5
  %4 = load ptr, ptr %other.addr, align 8
  %N5 = getelementptr inbounds %"struct.node::crypto::ScryptConfig", ptr %4, i32 0, i32 5
  %5 = load i32, ptr %N5, align 8
  store i32 %5, ptr %N, align 8
  %r = getelementptr inbounds %"struct.node::crypto::ScryptConfig", ptr %this1, i32 0, i32 6
  %6 = load ptr, ptr %other.addr, align 8
  %r6 = getelementptr inbounds %"struct.node::crypto::ScryptConfig", ptr %6, i32 0, i32 6
  %7 = load i32, ptr %r6, align 4
  store i32 %7, ptr %r, align 4
  %p = getelementptr inbounds %"struct.node::crypto::ScryptConfig", ptr %this1, i32 0, i32 7
  %8 = load ptr, ptr %other.addr, align 8
  %p7 = getelementptr inbounds %"struct.node::crypto::ScryptConfig", ptr %8, i32 0, i32 7
  %9 = load i32, ptr %p7, align 8
  store i32 %9, ptr %p, align 8
  %maxmem = getelementptr inbounds %"struct.node::crypto::ScryptConfig", ptr %this1, i32 0, i32 9
  %10 = load ptr, ptr %other.addr, align 8
  %maxmem8 = getelementptr inbounds %"struct.node::crypto::ScryptConfig", ptr %10, i32 0, i32 9
  %11 = load i64, ptr %maxmem8, align 8
  store i64 %11, ptr %maxmem, align 8
  %length = getelementptr inbounds %"struct.node::crypto::ScryptConfig", ptr %this1, i32 0, i32 10
  %12 = load ptr, ptr %other.addr, align 8
  %length9 = getelementptr inbounds %"struct.node::crypto::ScryptConfig", ptr %12, i32 0, i32 10
  %13 = load i32, ptr %length9, align 8
  store i32 %13, ptr %length, align 8
  ret void
}