; Function Attrs: mustprogress nounwind uwtable
define dso_local void @_ZN4node6crypto12ScryptConfigC2EOS1_(ptr noundef nonnull align 8 dereferenceable(96) %this, ptr noundef nonnull align 8 dereferenceable(96) %other) unnamed_addr #3 align 2 {
entry:
  store ptr getelementptr inbounds ({ [10 x ptr] }, ptr @_ZTVN4node6crypto12ScryptConfigE, i64 0, i32 0, i64 2), ptr %this, align 8
  %mode = getelementptr inbounds i8, ptr %this, i64 8
  %mode2 = getelementptr inbounds i8, ptr %other, i64 8
  %0 = load i32, ptr %mode2, align 8
  store i32 %0, ptr %mode, align 8
  %pass = getelementptr inbounds i8, ptr %this, i64 16
  %pass3 = getelementptr inbounds i8, ptr %other, i64 16
  tail call void @_ZN4node6crypto10ByteSourceC1EOS1_(ptr noundef nonnull align 8 dereferenceable(24) %pass, ptr noundef nonnull align 8 dereferenceable(24) %pass3) #14
  %salt = getelementptr inbounds i8, ptr %this, i64 40
  %salt4 = getelementptr inbounds i8, ptr %other, i64 40
  tail call void @_ZN4node6crypto10ByteSourceC1EOS1_(ptr noundef nonnull align 8 dereferenceable(24) %salt, ptr noundef nonnull align 8 dereferenceable(24) %salt4) #14
  %N = getelementptr inbounds i8, ptr %this, i64 64
  %N5 = getelementptr inbounds i8, ptr %other, i64 64
  %1 = load i32, ptr %N5, align 8
  store i32 %1, ptr %N, align 8
  %r = getelementptr inbounds i8, ptr %this, i64 68
  %r6 = getelementptr inbounds i8, ptr %other, i64 68
  %2 = load i32, ptr %r6, align 4
  store i32 %2, ptr %r, align 4
  %p = getelementptr inbounds i8, ptr %this, i64 72
  %p7 = getelementptr inbounds i8, ptr %other, i64 72
  %3 = load i32, ptr %p7, align 8
  store i32 %3, ptr %p, align 8
  %maxmem = getelementptr inbounds i8, ptr %this, i64 80
  %maxmem8 = getelementptr inbounds i8, ptr %other, i64 80
  %4 = load i64, ptr %maxmem8, align 8
  store i64 %4, ptr %maxmem, align 8
  %length = getelementptr inbounds i8, ptr %this, i64 88
  %length9 = getelementptr inbounds i8, ptr %other, i64 88
  %5 = load i32, ptr %length9, align 8
  store i32 %5, ptr %length, align 8
  ret void
}